target datalayout = "e-m:e-p270:32:32-p271:32:32-p272:64:64-i64:64-i128:128-f80:128-n8:16:32:64-S128"
target triple = "x86_64-pc-linux-gnu"

@wal_segment_size = external global i32, align 4
@.str.6 = private unnamed_addr constant [15 x i8] c"xlogrecovery.c\00", align 1
@XLogReceiptTime = internal global i64 0, align 8
@InRedo = internal global i8 0, align 1
@XLogReceiptSource = internal global i32 0, align 4
@readSource = internal global i32 0, align 4
@.str.155 = private unnamed_addr constant [13 x i8] c"%08X%08X%08X\00", align 1
@curFileTLI = internal global i32 0, align 4
@.str.172 = private unnamed_addr constant [29 x i8] c"could not open file \22%s\22: %m\00", align 1
@.str.173 = private unnamed_addr constant [20 x i8] c"pg_wal/%08X%08X%08X\00", align 1
@.str.174 = private unnamed_addr constant [15 x i8] c"waiting for %s\00", align 1
@.str.175 = private unnamed_addr constant [13 x i8] c"RECOVERYXLOG\00", align 1
@.str.176 = private unnamed_addr constant [31 x i8] c"invalid XLogFileRead source %d\00", align 1
@__func__.XLogFileRead = private unnamed_addr constant [13 x i8] c"XLogFileRead\00", align 1
@.str.177 = private unnamed_addr constant [10 x i8] c"pg_wal/%s\00", align 1
@.str.178 = private unnamed_addr constant [14 x i8] c"recovering %s\00", align 1

; Function Attrs: inlinehint nounwind uwtable
define internal void @XLogFilePath(ptr noundef %0, i32 noundef %1, i64 noundef %2, i32 noundef %3) #7 {
  %5 = alloca ptr, align 8
  %6 = alloca i32, align 4
  %7 = alloca i64, align 8
  %8 = alloca i32, align 4
  store ptr %0, ptr %5, align 8
  store i32 %1, ptr %6, align 4
  store i64 %2, ptr %7, align 8
  store i32 %3, ptr %8, align 4
  %9 = load ptr, ptr %5, align 8
  %10 = load i32, ptr %6, align 4
  %11 = load i64, ptr %7, align 8
  %12 = load i32, ptr %8, align 4
  %13 = sext i32 %12 to i64
  %14 = udiv i64 4294967296, %13
  %15 = udiv i64 %11, %14
  %16 = trunc i64 %15 to i32
  %17 = load i64, ptr %7, align 8
  %18 = load i32, ptr %8, align 4
  %19 = sext i32 %18 to i64
  %20 = udiv i64 4294967296, %19
  %21 = urem i64 %17, %20
  %22 = trunc i64 %21 to i32
  %23 = call i32 (ptr, i64, ptr, ...) @pg_snprintf(ptr noundef %9, i64 noundef 1024, ptr noundef @.str.173, i32 noundef %10, i32 noundef %16, i32 noundef %22)
  ret void
}

; Function Attrs: inlinehint nounwind uwtable
define internal void @set_ps_display(ptr noundef %0) #7 {
  %2 = alloca ptr, align 8
  store ptr %0, ptr %2, align 8
  %3 = load ptr, ptr %2, align 8
  %4 = load ptr, ptr %2, align 8
  %5 = call i64 @strlen(ptr noundef %4) #16
  call void @set_ps_display_with_len(ptr noundef %3, i64 noundef %5)
  ret void
}

; Function Attrs: inlinehint nounwind uwtable
define internal void @XLogFileName(ptr noundef %0, i32 noundef %1, i64 noundef %2, i32 noundef %3) #7 {
  %5 = alloca ptr, align 8
  %6 = alloca i32, align 4
  %7 = alloca i64, align 8
  %8 = alloca i32, align 4
  store ptr %0, ptr %5, align 8
  store i32 %1, ptr %6, align 4
  store i64 %2, ptr %7, align 8
  store i32 %3, ptr %8, align 4
  %9 = load ptr, ptr %5, align 8
  %10 = load i32, ptr %6, align 4
  %11 = load i64, ptr %7, align 8
  %12 = load i32, ptr %8, align 4
  %13 = sext i32 %12 to i64
  %14 = udiv i64 4294967296, %13
  %15 = udiv i64 %11, %14
  %16 = trunc i64 %15 to i32
  %17 = load i64, ptr %7, align 8
  %18 = load i32, ptr %8, align 4
  %19 = sext i32 %18 to i64
  %20 = udiv i64 4294967296, %19
  %21 = urem i64 %17, %20
  %22 = trunc i64 %21 to i32
  %23 = call i32 (ptr, i64, ptr, ...) @pg_snprintf(ptr noundef %9, i64 noundef 64, ptr noundef @.str.155, i32 noundef %10, i32 noundef %16, i32 noundef %22)
  ret void
}

; Function Attrs: nounwind uwtable
define internal i32 @XLogFileRead(i64 noundef %0, i32 noundef %1, i32 noundef %2, i1 noundef zeroext %3) #0 {
  %5 = alloca i32, align 4
  %6 = alloca i64, align 8
  %7 = alloca i32, align 4
  %8 = alloca i32, align 4
  %9 = alloca i8, align 1
  %10 = alloca [64 x i8], align 16
  %11 = alloca [80 x i8], align 16
  %12 = alloca [1024 x i8], align 16
  %13 = alloca i32, align 4
  %14 = alloca i32, align 4
  store i64 %0, ptr %6, align 8
  store i32 %1, ptr %7, align 4
  store i32 %2, ptr %8, align 4
  %15 = zext i1 %3 to i8
  store i8 %15, ptr %9, align 1
  call void @llvm.lifetime.start.p0(i64 64, ptr %10) #14
  call void @llvm.lifetime.start.p0(i64 80, ptr %11) #14
  call void @llvm.lifetime.start.p0(i64 1024, ptr %12) #14
  call void @llvm.lifetime.start.p0(i64 4, ptr %13) #14
  %16 = getelementptr inbounds [64 x i8], ptr %10, i64 0, i64 0
  %17 = load i32, ptr %7, align 4
  %18 = load i64, ptr %6, align 8
  %19 = load i32, ptr @wal_segment_size, align 4
  call void @XLogFileName(ptr noundef %16, i32 noundef %17, i64 noundef %18, i32 noundef %19)
  %20 = load i32, ptr %8, align 4
  switch i32 %20, label %40 [
    i32 1, label %21
    i32 2, label %35
    i32 3, label %35
  ]

21:                                               ; preds = %4
  %22 = getelementptr inbounds [80 x i8], ptr %11, i64 0, i64 0
  %23 = getelementptr inbounds [64 x i8], ptr %10, i64 0, i64 0
  %24 = call i32 (ptr, i64, ptr, ...) @pg_snprintf(ptr noundef %22, i64 noundef 80, ptr noundef @.str.174, ptr noundef %23)
  %25 = getelementptr inbounds [80 x i8], ptr %11, i64 0, i64 0
  call void @set_ps_display(ptr noundef %25)
  %26 = getelementptr inbounds [1024 x i8], ptr %12, i64 0, i64 0
  %27 = getelementptr inbounds [64 x i8], ptr %10, i64 0, i64 0
  %28 = load i32, ptr @wal_segment_size, align 4
  %29 = sext i32 %28 to i64
  %30 = load i8, ptr @InRedo, align 1, !range !4, !noundef !5
  %31 = trunc i8 %30 to i1
  %32 = call zeroext i1 @RestoreArchivedFile(ptr noundef %26, ptr noundef %27, ptr noundef @.str.175, i64 noundef %29, i1 noundef zeroext %31)
  br i1 %32, label %34, label %33

33:                                               ; preds = %21
  store i32 -1, ptr %5, align 4
  store i32 1, ptr %14, align 4
  br label %101

34:                                               ; preds = %21
  br label %52

35:                                               ; preds = %4, %4
  %36 = getelementptr inbounds [1024 x i8], ptr %12, i64 0, i64 0
  %37 = load i32, ptr %7, align 4
  %38 = load i64, ptr %6, align 8
  %39 = load i32, ptr @wal_segment_size, align 4
  call void @XLogFilePath(ptr noundef %36, i32 noundef %37, i64 noundef %38, i32 noundef %39)
  br label %52

40:                                               ; preds = %4
  br label %41

41:                                               ; preds = %40
  br i1 true, label %42, label %44

42:                                               ; preds = %41
  %43 = call zeroext i1 @errstart_cold(i32 noundef 21, ptr noundef null) #15
  br i1 %43, label %46, label %49

44:                                               ; preds = %41
  %45 = call zeroext i1 @errstart(i32 noundef 21, ptr noundef null)
  br i1 %45, label %46, label %49

46:                                               ; preds = %44, %42
  %47 = load i32, ptr %8, align 4
  %48 = call i32 (ptr, ...) @errmsg_internal(ptr noundef @.str.176, i32 noundef %47)
  call void @errfinish(ptr noundef @.str.6, i32 noundef 4236, ptr noundef @__func__.XLogFileRead)
  br label %49

49:                                               ; preds = %46, %44, %42
  unreachable

50:                                               ; No predecessors!
  br label %51

51:                                               ; preds = %50
  br label %52

52:                                               ; preds = %51, %35, %34
  %53 = load i32, ptr %8, align 4
  %54 = icmp eq i32 %53, 1
  br i1 %54, label %55, label %61

55:                                               ; preds = %52
  %56 = getelementptr inbounds [1024 x i8], ptr %12, i64 0, i64 0
  %57 = getelementptr inbounds [64 x i8], ptr %10, i64 0, i64 0
  call void @KeepFileRestoredFromArchive(ptr noundef %56, ptr noundef %57)
  %58 = getelementptr inbounds [1024 x i8], ptr %12, i64 0, i64 0
  %59 = getelementptr inbounds [64 x i8], ptr %10, i64 0, i64 0
  %60 = call i32 (ptr, i64, ptr, ...) @pg_snprintf(ptr noundef %58, i64 noundef 1024, ptr noundef @.str.177, ptr noundef %59)
  br label %61

61:                                               ; preds = %55, %52
  %62 = getelementptr inbounds [1024 x i8], ptr %12, i64 0, i64 0
  %63 = call i32 @BasicOpenFile(ptr noundef %62, i32 noundef 0)
  store i32 %63, ptr %13, align 4
  %64 = load i32, ptr %13, align 4
  %65 = icmp sge i32 %64, 0
  br i1 %65, label %66, label %80

66:                                               ; preds = %61
  %67 = load i32, ptr %7, align 4
  store i32 %67, ptr @curFileTLI, align 4
  %68 = getelementptr inbounds [80 x i8], ptr %11, i64 0, i64 0
  %69 = getelementptr inbounds [64 x i8], ptr %10, i64 0, i64 0
  %70 = call i32 (ptr, i64, ptr, ...) @pg_snprintf(ptr noundef %68, i64 noundef 80, ptr noundef @.str.178, ptr noundef %69)
  %71 = getelementptr inbounds [80 x i8], ptr %11, i64 0, i64 0
  call void @set_ps_display(ptr noundef %71)
  %72 = load i32, ptr %8, align 4
  store i32 %72, ptr @readSource, align 4
  %73 = load i32, ptr %8, align 4
  store i32 %73, ptr @XLogReceiptSource, align 4
  %74 = load i32, ptr %8, align 4
  %75 = icmp ne i32 %74, 3
  br i1 %75, label %76, label %78

76:                                               ; preds = %66
  %77 = call i64 @GetCurrentTimestamp()
  store i64 %77, ptr @XLogReceiptTime, align 8
  br label %78

78:                                               ; preds = %76, %66
  %79 = load i32, ptr %13, align 4
  store i32 %79, ptr %5, align 4
  store i32 1, ptr %14, align 4
  br label %101

80:                                               ; preds = %61
  %81 = call ptr @__errno_location() #17
  %82 = load i32, ptr %81, align 4
  %83 = icmp ne i32 %82, 2
  br i1 %83, label %87, label %84

84:                                               ; preds = %80
  %85 = load i8, ptr %9, align 1, !range !4, !noundef !5
  %86 = trunc i8 %85 to i1
  br i1 %86, label %100, label %87

87:                                               ; preds = %84, %80
  br label %88

88:                                               ; preds = %87
  br i1 true, label %89, label %91

89:                                               ; preds = %88
  %90 = call zeroext i1 @errstart_cold(i32 noundef 23, ptr noundef null) #15
  br i1 %90, label %93, label %97

91:                                               ; preds = %88
  %92 = call zeroext i1 @errstart(i32 noundef 23, ptr noundef null)
  br i1 %92, label %93, label %97

93:                                               ; preds = %91, %89
  %94 = call i32 @errcode_for_file_access()
  %95 = getelementptr inbounds [1024 x i8], ptr %12, i64 0, i64 0
  %96 = call i32 (ptr, ...) @errmsg(ptr noundef @.str.172, ptr noundef %95)
  call void @errfinish(ptr noundef @.str.6, i32 noundef 4277, ptr noundef @__func__.XLogFileRead)
  br label %97

97:                                               ; preds = %93, %91, %89
  unreachable

98:                                               ; No predecessors!
  br label %99

99:                                               ; preds = %98
  br label %100

100:                                              ; preds = %99, %84
  store i32 -1, ptr %5, align 4
  store i32 1, ptr %14, align 4
  br label %101

101:                                              ; preds = %100, %78, %33
  call void @llvm.lifetime.end.p0(i64 4, ptr %13) #14
  call void @llvm.lifetime.end.p0(i64 1024, ptr %12) #14
  call void @llvm.lifetime.end.p0(i64 80, ptr %11) #14
  call void @llvm.lifetime.end.p0(i64 64, ptr %10) #14
  %102 = load i32, ptr %5, align 4
  ret i32 %102
}