; Function Attrs: nounwind uwtable
define internal fastcc range(i32 -1, -2147483648) i32 @XLogFileRead(i64 noundef %0, i32 noundef %1, i32 noundef range(i32 1, 4) %2, i1 noundef zeroext %3) unnamed_addr #2 {
  %5 = alloca [64 x i8], align 16
  %6 = alloca [80 x i8], align 16
  %7 = alloca [1024 x i8], align 16
  call void @llvm.lifetime.start.p0(i64 64, ptr nonnull %5) #23
  call void @llvm.lifetime.start.p0(i64 80, ptr nonnull %6) #23
  call void @llvm.lifetime.start.p0(i64 1024, ptr nonnull %7) #23
  %8 = load i32, ptr @wal_segment_size, align 4
  %9 = sext i32 %8 to i64
  %10 = udiv i64 4294967296, %9
  %11 = udiv i64 %0, %10
  %12 = trunc i64 %11 to i32
  %13 = urem i64 %0, %10
  %14 = trunc nuw i64 %13 to i32
  %15 = call i32 (ptr, i64, ptr, ...) @pg_snprintf(ptr noundef nonnull %5, i64 noundef 64, ptr noundef nonnull @.str.155, i32 noundef %1, i32 noundef %12, i32 noundef %14) #23
  %switch = icmp eq i32 %2, 1
  br i1 %switch, label %16, label %22

16:                                               ; preds = %4
  %17 = call i32 (ptr, i64, ptr, ...) @pg_snprintf(ptr noundef nonnull %6, i64 noundef 80, ptr noundef nonnull @.str.174, ptr noundef nonnull %5) #23
  %18 = call i64 @strlen(ptr noundef nonnull dereferenceable(1) %6) #26
  call void @set_ps_display_with_len(ptr noundef nonnull %6, i64 noundef %18) #23
  %19 = load i32, ptr @wal_segment_size, align 4
  %20 = sext i32 %19 to i64
  %.b16 = load i1, ptr @InRedo, align 1
  %21 = call zeroext i1 @RestoreArchivedFile(ptr noundef nonnull %7, ptr noundef nonnull %5, ptr noundef nonnull @.str.175, i64 noundef %20, i1 noundef zeroext %.b16) #23
  br i1 %21, label %31, label %48

22:                                               ; preds = %4
  %23 = load i32, ptr @wal_segment_size, align 4
  %24 = sext i32 %23 to i64
  %25 = udiv i64 4294967296, %24
  %26 = udiv i64 %0, %25
  %27 = trunc i64 %26 to i32
  %28 = urem i64 %0, %25
  %29 = trunc nuw i64 %28 to i32
  %30 = call i32 (ptr, i64, ptr, ...) @pg_snprintf(ptr noundef nonnull %7, i64 noundef 1024, ptr noundef nonnull @.str.173, i32 noundef %1, i32 noundef %27, i32 noundef %29) #23
  br label %33

31:                                               ; preds = %16
  call void @KeepFileRestoredFromArchive(ptr noundef nonnull %7, ptr noundef nonnull %5) #23
  %32 = call i32 (ptr, i64, ptr, ...) @pg_snprintf(ptr noundef nonnull %7, i64 noundef 1024, ptr noundef nonnull @.str.177, ptr noundef nonnull %5) #23
  br label %33

33:                                               ; preds = %22, %31
  %34 = call i32 @BasicOpenFile(ptr noundef nonnull %7, i32 noundef 0) #23
  %35 = icmp sgt i32 %34, -1
  br i1 %35, label %36, label %41

36:                                               ; preds = %33
  store i32 %1, ptr @curFileTLI, align 4
  %37 = call i32 (ptr, i64, ptr, ...) @pg_snprintf(ptr noundef nonnull %6, i64 noundef 80, ptr noundef nonnull @.str.178, ptr noundef nonnull %5) #23
  %38 = call i64 @strlen(ptr noundef nonnull dereferenceable(1) %6) #26
  call void @set_ps_display_with_len(ptr noundef nonnull %6, i64 noundef %38) #23
  store i32 %2, ptr @readSource, align 4
  store i32 %2, ptr @XLogReceiptSource, align 4
  %.not17 = icmp eq i32 %2, 3
  br i1 %.not17, label %48, label %39

39:                                               ; preds = %36
  %40 = call i64 @GetCurrentTimestamp() #23
  store i64 %40, ptr @XLogReceiptTime, align 8
  br label %48

41:                                               ; preds = %33
  %42 = tail call ptr @__errno_location() #25
  %43 = load i32, ptr %42, align 4
  %.not = icmp eq i32 %43, 2
  %brmerge.not = and i1 %3, %.not
  br i1 %brmerge.not, label %48, label %44

44:                                               ; preds = %41
  %45 = call zeroext i1 @errstart_cold(i32 noundef 23, ptr noundef null) #24
  call void @llvm.assume(i1 %45)
  %46 = call i32 @errcode_for_file_access() #23
  %47 = call i32 (ptr, ...) @errmsg(ptr noundef nonnull @.str.172, ptr noundef nonnull %7) #23
  call void @errfinish(ptr noundef nonnull @.str.6, i32 noundef 4277, ptr noundef nonnull @__func__.XLogFileRead) #23
  unreachable

48:                                               ; preds = %41, %36, %39, %16
  %.0 = phi i32 [ -1, %16 ], [ %34, %39 ], [ %34, %36 ], [ -1, %41 ]
  call void @llvm.lifetime.end.p0(i64 1024, ptr nonnull %7) #23
  call void @llvm.lifetime.end.p0(i64 80, ptr nonnull %6) #23
  call void @llvm.lifetime.end.p0(i64 64, ptr nonnull %5) #23
  ret i32 %.0
}